(dp0
S'pink'
p1
I10750
sS'blue'
p2
I11648
sS'cow'
p3
I15276
sS'hippo'
p4
I18652
sS'car'
p5
I17682
sS'yellow'
p6
I12080
sS'nonsalient'
p7
I19345
sS'lion'
p8
I15832
sS'book'
p9
I22353
sS'green'
p10
I12602
sS'frog'
p11
I13435
sS'elephant'
p12
I16290
sS'orange'
p13
I11164
sS'airplane'
p14
I22014
sS'pooh'
p15
I21640
sS'boat'
p16
I14000
sS'red'
p17
I13030
s.