(dp0
S'pink'
p1
I5653
sS'blue'
p2
I6100
sS'cow'
p3
I12625
sS'hippo'
p4
I12599
sS'car'
p5
I14690
sS'duck'
p6
I18996
sS'frog'
p7
I15727
sS'lion'
p8
I11548
sS'book'
p9
I13919
sS'raptor'
p10
I18443
sS'yellow'
p11
I7356
sS'elephant'
p12
I13404
sS'orange'
p13
I8056
sS'airplane'
p14
I12910
sS'pooh'
p15
I16129
sS'boat'
p16
I12135
sS'red'
p17
I6718
s.