(dp0
S'blue'
p1
I9095
sS'pink'
p2
I11657
sS'cow'
p3
I14150
sS'car'
p4
I17397
sS'elephant'
p5
I18118
sS'frog'
p6
I25358
sS'nonsalient'
p7
I23191
sS'boat'
p8
I18485
sS'book'
p9
I13199
sS'green'
p10
I10424
sS'yellow'
p11
I8139
sS'duck'
p12
I13610
sS'orange'
p13
I11177
sS'pooh'
p14
I19091
sS'airplane'
p15
I21581
sS'raptor'
p16
I17736
sS'red'
p17
I10818
s.