(dp0
S'blue'
p1
I7655
sS'raptor'
p2
I17710
sS'green'
p3
I5435
sS'boat'
p4
I14184
sS'duck'
p5
I18019
sS'orange'
p6
I5976
sS'car'
p7
I12774
sS'pooh'
p8
I15932
sS'elephant'
p9
I19211
sS'red'
p10
I6464
s.