(dp0
S'blue'
p1
I10110
sS'pink'
p2
I11359
sS'cow'
p3
I16143
sS'hippo'
p4
I19452
sS'car'
p5
I14497
sS'duck'
p6
I18769
sS'yellow'
p7
I9511
sS'nonsalient'
p8
I13016
sS'lion'
p9
I16654
sS'book'
p10
I17395
sS'green'
p11
I9107
sS'raptor'
p12
I14986
sS'elephant'
p13
I17052
sS'orange'
p14
I11038
sS'pooh'
p15
I11706
sS'airplane'
p16
I19910
sS'boat'
p17
I14130
sS'red'
p18
I10622
s.