(dp0
S'pink'
p1
I5870
sS'blue'
p2
I6710
sS'cow'
p3
I12109
sS'hippo'
p4
I11288
sS'car'
p5
I14641
sS'duck'
p6
I13394
sS'red'
p7
I6315
sS'frog'
p8
I12841
sS'lion'
p9
I12443
sS'book'
p10
I10968
sS'green'
p11
I7153
sS'yellow'
p12
I5493
sS'elephant'
p13
I11634
sS'orange'
p14
I4864
sS'airplane'
p15
I13859
sS'pooh'
p16
I14294
sS'boat'
p17
I7508
sS'raptor'
p18
I8403
s.