(dp0
S'blue'
p1
I11870
sS'pink'
p2
I13616
sS'cow'
p3
I18393
sS'hippo'
p4
I14030
sS'car'
p5
I14393
sS'duck'
p6
I19492
sS'yellow'
p7
I11245
sS'lion'
p8
I18844
sS'frog'
p9
I17464
sS'green'
p10
I10803
sS'boat'
p11
I15802
sS'elephant'
p12
I17013
sS'orange'
p13
I10301
sS'pooh'
p14
I19885
sS'airplane'
p15
I20305
sS'book'
p16
I17871
sS'raptor'
p17
I14760
sS'red'
p18
I13232
s.