(dp0
S'pink'
p1
I9417
sS'blue'
p2
I10094
sS'cow'
p3
I14289
sS'hippo'
p4
I16148
sS'car'
p5
I13870
sS'duck'
p6
I15555
sS'yellow'
p7
I9020
sS'nonsalient'
p8
I11068
sS'lion'
p9
I15143
sS'book'
p10
I13497
sS'green'
p11
I9780
sS'frog'
p12
I14652
sS'elephant'
p13
I13126
sS'orange'
p14
I7913
sS'airplane'
p15
I11857
sS'pooh'
p16
I12372
sS'red'
p17
I8495
sS'raptor'
p18
I16519
s.