(dp0
S'pink'
p1
I6550
sS'blue'
p2
I9402
sS'cow'
p3
I13027
sS'hippo'
p4
I11081
sS'car'
p5
I14797
sS'elephant'
p6
I14453
sS'red'
p7
I8726
sS'yellow'
p8
I8195
sS'lion'
p9
I11705
sS'book'
p10
I15209
sS'green'
p11
I7625
sS'frog'
p12
I10306
sS'duck'
p13
I9870
sS'orange'
p14
I9101
sS'pooh'
p15
I14066
sS'airplane'
p16
I12678
sS'boat'
p17
I12115
sS'raptor'
p18
I13482
s.