(dp0
S'blue'
p1
I5650
sS'pink'
p2
I8912
sS'boat'
p3
I9405
sS'cow'
p4
I14757
sS'hippo'
p5
I12470
sS'car'
p6
I10199
sS'elephant'
p7
I14483
sS'yellow'
p8
I8128
sS'lion'
p9
I9823
sS'book'
p10
I13768
sS'green'
p11
I6561
sS'frog'
p12
I13370
sS'duck'
p13
I14130
sS'orange'
p14
I6175
sS'pooh'
p15
I12887
sS'airplane'
p16
I15448
sS'raptor'
p17
I15036
sS'red'
p18
I8465
s.