(dp0
S'blue'
p1
I7457
sS'pink'
p2
I11418
sS'cow'
p3
I11756
sS'hippo'
p4
I13708
sS'car'
p5
I16120
sS'duck'
p6
I17443
sS'yellow'
p7
I10940
sS'lion'
p8
I15292
sS'book'
p9
I12795
sS'raptor'
p10
I14308
sS'frog'
p11
I13328
sS'elephant'
p12
I12192
sS'orange'
p13
I8438
sS'pooh'
p14
I18008
sS'airplane'
p15
I16623
sS'boat'
p16
I15741
sS'red'
p17
I7977
s.