(dp0
S'blue'
p1
I5486
sS'pink'
p2
I6614
sS'boat'
p3
I14455
sS'cow'
p4
I8811
sS'hippo'
p5
I12525
sS'car'
p6
I9162
sS'elephant'
p7
I11593
sS'yellow'
p8
I7798
sS'lion'
p9
I12031
sS'book'
p10
I14980
sS'green'
p11
I6217
sS'frog'
p12
I11110
sS'duck'
p13
I10682
sS'orange'
p14
I7461
sS'airplane'
p15
I8416
sS'pooh'
p16
I13651
sS'red'
p17
I7024
sS'raptor'
p18
I13172
s.