(dp0
S'pink'
p1
I6600
sS'blue'
p2
I8264
sS'boat'
p3
I9334
sS'cow'
p4
I11242
sS'hippo'
p5
I10180
sS'car'
p6
I10706
sS'duck'
p7
I14095
sS'yellow'
p8
I5736
sS'lion'
p9
I9727
sS'book'
p10
I13307
sS'green'
p11
I8687
sS'frog'
p12
I12621
sS'elephant'
p13
I12896
sS'orange'
p14
I7285
sS'pooh'
p15
I11634
sS'airplane'
p16
I12297
sS'red'
p17
I7642
sS'raptor'
p18
I9017
s.