(dp0
S'pink'
p1
I7042
sS'blue'
p2
I8940
sS'cow'
p3
I14760
sS'hippo'
p4
I11497
sS'car'
p5
I9350
sS'duck'
p6
I15175
sS'red'
p7
I7954
sS'frog'
p8
I13935
sS'lion'
p9
I13063
sS'book'
p10
I10173
sS'green'
p11
I7499
sS'yellow'
p12
I8503
sS'elephant'
p13
I9843
sS'orange'
p14
I6201
sS'pooh'
p15
I12127
sS'airplane'
p16
I12656
sS'boat'
p17
I13468
sS'raptor'
p18
I14349
s.