(dp0
S'blue'
p1
I3698
sS'pink'
p2
I5079
sS'cow'
p3
I7391
sS'hippo'
p4
I8777
sS'car'
p5
I8168
sS'elephant'
p6
I11537
sS'red'
p7
I5446
sS'frog'
p8
I10631
sS'lion'
p9
I6452
sS'book'
p10
I9661
sS'green'
p11
I6125
sS'yellow'
p12
I5809
sS'duck'
p13
I11145
sS'orange'
p14
I4017
sS'pooh'
p15
I9255
sS'airplane'
p16
I10151
sS'boat'
p17
I7001
sS'raptor'
p18
I7778
s.