(dp0
S'blue'
p1
I10400
sS'pink'
p2
I11326
sS'boat'
p3
I20864
sS'cow'
p4
I16851
sS'hippo'
p5
I18347
sS'car'
p6
I19873
sS'elephant'
p7
I19485
sS'yellow'
p8
I12965
sS'lion'
p9
I14017
sS'book'
p10
I20314
sS'green'
p11
I12205
sS'frog'
p12
I19095
sS'duck'
p13
I13391
sS'orange'
p14
I10820
sS'pooh'
p15
I14755
sS'airplane'
p16
I18739
sS'red'
p17
I11838
sS'raptor'
p18
I14415
s.