(dp0
S'blue'
p1
I10700
sS'pink'
p2
I11056
sS'cow'
p3
I13400
sS'hippo'
p4
I15806
sS'car'
p5
I16495
sS'duck'
p6
I15316
sS'red'
p7
I8543
sS'yellow'
p8
I11364
sS'lion'
p9
I16924
sS'book'
p10
I13772
sS'green'
p11
I10049
sS'frog'
p12
I13110
sS'elephant'
p13
I12815
sS'orange'
p14
I11728
sS'pooh'
p15
I14818
sS'airplane'
p16
I11994
sS'boat'
p17
I12402
sS'raptor'
p18
I14257
s.