(dp0
S'pink'
p1
I7277
sS'blue'
p2
I8407
sS'boat'
p3
I13027
sS'cow'
p4
I10511
sS'hippo'
p5
I10145
sS'car'
p6
I12531
sS'duck'
p7
I11093
sS'yellow'
p8
I8756
sS'lion'
p9
I9717
sS'book'
p10
I12042
sS'green'
p11
I8098
sS'raptor'
p12
I9399
sS'elephant'
p13
I10760
sS'orange'
p14
I7703
sS'airplane'
p15
I11688
sS'pooh'
p16
I13558
sS'red'
p17
I9076
sS'frog'
p18
I13971
s.