(dp0
S'pink'
p1
I6753
sS'blue'
p2
I7177
sS'boat'
p3
I14866
sS'cow'
p4
I9759
sS'hippo'
p5
I11898
sS'car'
p6
I15640
sS'duck'
p7
I15347
sS'frog'
p8
I11267
sS'lion'
p9
I9421
sS'book'
p10
I10503
sS'green'
p11
I7568
sS'yellow'
p12
I7978
sS'elephant'
p13
I9074
sS'orange'
p14
I8387
sS'pooh'
p15
I11562
sS'raptor'
p16
I10114
sS'red'
p17
I8679
s.