(dp0
S'pink'
p1
I3753
sS'blue'
p2
I5689
sS'cow'
p3
I6935
sS'hippo'
p4
I9594
sS'car'
p5
I10687
sS'elephant'
p6
I9929
sS'red'
p7
I5340
sS'yellow'
p8
I4706
sS'lion'
p9
I7738
sS'book'
p10
I7224
sS'green'
p11
I5020
sS'frog'
p12
I8156
sS'duck'
p13
I6002
sS'orange'
p14
I4190
sS'pooh'
p15
I11857
sS'airplane'
p16
I11253
sS'boat'
p17
I10380
sS'raptor'
p18
I8485
s.