(dp0
S'blue'
p1
I5203
sS'pink'
p2
I6561
sS'boat'
p3
I12786
sS'cow'
p4
I9379
sS'hippo'
p5
I11659
sS'car'
p6
I8992
sS'duck'
p7
I14073
sS'yellow'
p8
I7994
sS'lion'
p9
I13496
sS'book'
p10
I12179
sS'green'
p11
I6197
sS'raptor'
p12
I10832
sS'elephant'
p13
I11194
sS'orange'
p14
I7613
sS'pooh'
p15
I9923
sS'airplane'
p16
I10377
sS'red'
p17
I6997
sS'frog'
p18
I8591
s.