(dp0
S'blue'
p1
I6977
sS'pink'
p2
I7829
sS'boat'
p3
I14355
sS'cow'
p4
I13383
sS'hippo'
p5
I10415
sS'car'
p6
I12604
sS'duck'
p7
I12231
sS'frog'
p8
I13004
sS'lion'
p9
I13926
sS'book'
p10
I11610
sS'green'
p11
I7468
sS'yellow'
p12
I8521
sS'elephant'
p13
I9679
sS'orange'
p14
I8163
sS'airplane'
p15
I9982
sS'pooh'
p16
I10994
sS'raptor'
p17
I9013
sS'red'
p18
I6428
s.