(dp0
S'blue'
p1
I7760
sS'pink'
p2
I10656
sS'boat'
p3
I14175
sS'cow'
p4
I11611
sS'hippo'
p5
I13746
sS'car'
p6
I14553
sS'duck'
p7
I15901
sS'yellow'
p8
I8940
sS'lion'
p9
I15495
sS'book'
p10
I12346
sS'green'
p11
I9286
sS'frog'
p12
I11181
sS'elephant'
p13
I11979
sS'orange'
p14
I9690
sS'airplane'
p15
I12989
sS'pooh'
p16
I15004
sS'raptor'
p17
I16250
sS'red'
p18
I8165
s.