(dp0
S'pink'
p1
I8300
sS'blue'
p2
I9286
sS'cow'
p3
I15193
sS'hippo'
p4
I11506
sS'car'
p5
I14197
sS'duck'
p6
I18409
sS'yellow'
p7
I10557
sS'nonsalient'
p8
I16557
sS'lion'
p9
I15576
sS'book'
p10
I13813
sS'green'
p11
I8786
sS'boat'
p12
I19965
sS'elephant'
p13
I14575
sS'orange'
p14
I10192
sS'pooh'
p15
I10970
sS'airplane'
p16
I19522
sS'raptor'
p17
I11954
sS'red'
p18
I9733
s.