(dp0
S'pink'
p1
I10910
sS'blue'
p2
I11445
sS'boat'
p3
I16325
sS'cow'
p4
I14305
sS'hippo'
p5
I17877
sS'car'
p6
I15675
sS'elephant'
p7
I12947
sS'frog'
p8
I18410
sS'lion'
p9
I12599
sS'book'
p10
I13333
sS'green'
p11
I9043
sS'yellow'
p12
I9786
sS'duck'
p13
I12094
sS'orange'
p14
I10227
sS'pooh'
p15
I13816
sS'airplane'
p16
I14861
sS'raptor'
p17
I11761
sS'red'
p18
I8629
s.