(dp0
S'pink'
p1
I3961
sS'blue'
p2
I5505
sS'cow'
p3
I13479
sS'car'
p4
I15460
sS'duck'
p5
I16703
sS'red'
p6
I6890
sS'yellow'
p7
I4881
sS'lion'
p8
I7466
sS'book'
p9
I15985
sS'green'
p10
I6352
sS'frog'
p11
I12621
sS'elephant'
p12
I14283
sS'orange'
p13
I5876
sS'pooh'
p14
I14999
sS'airplane'
p15
I13965
sS'boat'
p16
I13084
sS'raptor'
p17
I14572
s.