(dp0
S'blue'
p1
I7994
sS'pink'
p2
I9349
sS'cow'
p3
I15552
sS'hippo'
p4
I12861
sS'car'
p5
I10971
sS'elephant'
p6
I14176
sS'red'
p7
I7278
sS'frog'
p8
I13847
sS'nonsalient'
p9
I13470
sS'lion'
p10
I15904
sS'book'
p11
I11496
sS'green'
p12
I8995
sS'yellow'
p13
I8436
sS'duck'
p14
I10586
sS'orange'
p15
I7663
sS'pooh'
p16
I15042
sS'airplane'
p17
I14623
sS'boat'
p18
I9656
sS'raptor'
p19
I10115
s.