(dp0
S'pink'
p1
I6602
sS'blue'
p2
I8194
sS'cow'
p3
I11714
sS'hippo'
p4
I12567
sS'car'
p5
I13355
sS'elephant'
p6
I12121
sS'red'
p7
I7045
sS'frog'
p8
I10895
sS'lion'
p9
I13967
sS'book'
p10
I9036
sS'green'
p11
I7799
sS'yellow'
p12
I6179
sS'duck'
p13
I9583
sS'orange'
p14
I7411
sS'pooh'
p15
I8585
sS'airplane'
p16
I10009
sS'boat'
p17
I10510
sS'raptor'
p18
I11335
s.