(dp0
S'pink'
p1
I5823
sS'blue'
p2
I8013
sS'cow'
p3
I9774
sS'hippo'
p4
I10801
sS'car'
p5
I11394
sS'duck'
p6
I15611
sS'yellow'
p7
I6688
sS'lion'
p8
I10322
sS'frog'
p9
I12845
sS'green'
p10
I9196
sS'boat'
p11
I12120
sS'elephant'
p12
I12500
sS'orange'
p13
I7153
sS'pooh'
p14
I13851
sS'airplane'
p15
I14442
sS'book'
p16
I13303
sS'red'
p17
I6236
sS'raptor'
p18
I14933
s.