(dp0
S'pink'
p1
I6201
sS'blue'
p2
I7266
sS'boat'
p3
I12721
sS'cow'
p4
I8849
sS'hippo'
p5
I11832
sS'car'
p6
I13658
sS'duck'
p7
I13231
sS'yellow'
p8
I8031
sS'lion'
p9
I9382
sS'book'
p10
I11205
sS'green'
p11
I6851
sS'raptor'
p12
I14156
sS'elephant'
p13
I12383
sS'orange'
p14
I7699
sS'pooh'
p15
I10247
sS'airplane'
p16
I10685
sS'red'
p17
I8448
sS'frog'
p18
I9882
s.