(dp0
S'blue'
p1
I3531
sS'pink'
p2
I8221
sS'cow'
p3
I15733
sS'hippo'
p4
I10032
sS'car'
p5
I17164
sS'duck'
p6
I18404
sS'frog'
p7
I14784
sS'lion'
p8
I14175
sS'book'
p9
I16689
sS'green'
p10
I7344
sS'boat'
p11
I15351
sS'elephant'
p12
I8583
sS'orange'
p13
I7700
sS'airplane'
p14
I11490
sS'pooh'
p15
I11844
sS'raptor'
p16
I10478
sS'red'
p17
I6937
s.