(dp0
S'pink'
p1
I2849
sS'blue'
p2
I3398
sS'boat'
p3
I9667
sS'cow'
p4
I6923
sS'hippo'
p5
I12635
sS'car'
p6
I10998
sS'elephant'
p7
I12273
sS'yellow'
p8
I5327
sS'nonsalient'
p9
I7537
sS'lion'
p10
I10064
sS'book'
p11
I10527
sS'green'
p12
I4559
sS'frog'
p13
I8438
sS'duck'
p14
I6439
sS'orange'
p15
I4951
sS'airplane'
p16
I8872
sS'pooh'
p17
I9257
sS'red'
p18
I3920
sS'raptor'
p19
I5795
s.