(dp0
S'pink'
p1
I6195
sS'blue'
p2
I7394
sS'cow'
p3
I15879
sS'car'
p4
I14251
sS'hippo'
p5
I14790
sS'raptor'
p6
I12076
sS'duck'
p7
I12596
sS'yellow'
p8
I8836
sS'lion'
p9
I15322
sS'book'
p10
I9412
sS'green'
p11
I8304
sS'red'
p12
I6663
sS'elephant'
p13
I10273
sS'orange'
p14
I7840
sS'pooh'
p15
I11631
sS'airplane'
p16
I13855
sS'boat'
p17
I10934
sS'frog'
p18
I11283
s.