(dp0
S'blue'
p1
I5490
sS'pink'
p2
I6859
sS'boat'
p3
I11438
sS'cow'
p4
I12839
sS'hippo'
p5
I9130
sS'car'
p6
I10039
sS'elephant'
p7
I11001
sS'yellow'
p8
I7341
sS'lion'
p9
I8261
sS'book'
p10
I13234
sS'green'
p11
I5162
sS'frog'
p12
I10561
sS'duck'
p13
I7790
sS'orange'
p14
I5821
sS'airplane'
p15
I9627
sS'pooh'
p16
I12218
sS'raptor'
p17
I11843
sS'red'
p18
I6406
s.