(dp0
S'blue'
p1
I9765
sS'pink'
p2
I11220
sS'cow'
p3
I13291
sS'hippo'
p4
I15945
sS'car'
p5
I13665
sS'elephant'
p6
I17435
sS'red'
p7
I11632
sS'frog'
p8
I17161
sS'lion'
p9
I15505
sS'book'
p10
I16361
sS'green'
p11
I12009
sS'yellow'
p12
I12846
sS'duck'
p13
I16724
sS'orange'
p14
I12362
sS'airplane'
p15
I14036
sS'pooh'
p16
I14579
sS'boat'
p17
I15112
sS'raptor'
p18
I17782
s.