(dp0
S'pink'
p1
I10964
sS'blue'
p2
I10333
sS'cow'
p3
I19916
sS'car'
p4
I25811
sS'duck'
p5
I18993
sS'frog'
p6
I23726
sS'book'
p7
I14089
sS'green'
p8
I9826
sS'boat'
p9
I20573
sS'elephant'
p10
I12844
sS'orange'
p11
I9183
sS'pooh'
p12
I13404
sS'airplane'
p13
I18502
sS'raptor'
p14
I17767
sS'red'
p15
I11716
s.