(dp0
S'pink'
p1
I7652
sS'blue'
p2
I8869
sS'boat'
p3
I14505
sS'cow'
p4
I12428
sS'hippo'
p5
I12043
sS'car'
p6
I10516
sS'duck'
p7
I13189
sS'yellow'
p8
I8505
sS'lion'
p9
I11618
sS'book'
p10
I13653
sS'green'
p11
I9204
sS'frog'
p12
I12817
sS'elephant'
p13
I9557
sS'orange'
p14
I8046
sS'pooh'
p15
I10024
sS'airplane'
p16
I14093
sS'red'
p17
I7134
sS'raptor'
p18
I11051
s.