(dp0
S'blue'
p1
I8703
sS'pink'
p2
I10869
sS'boat'
p3
I13706
sS'cow'
p4
I14310
sS'hippo'
p5
I12554
sS'car'
p6
I15443
sS'elephant'
p7
I18127
sS'yellow'
p8
I9232
sS'lion'
p9
I16680
sS'book'
p10
I14818
sS'green'
p11
I10380
sS'frog'
p12
I11339
sS'duck'
p13
I17527
sS'orange'
p14
I7980
sS'airplane'
p15
I12075
sS'pooh'
p16
I13218
sS'raptor'
p17
I16052
sS'red'
p18
I9833
s.