(dp0
S'pink'
p1
I4433
sS'blue'
p2
I5945
sS'frog'
p3
I8337
sS'cow'
p4
I11134
sS'hippo'
p5
I10435
sS'car'
p6
I12045
sS'elephant'
p7
I12980
sS'yellow'
p8
I6781
sS'lion'
p9
I12570
sS'book'
p10
I8773
sS'green'
p11
I7583
sS'boat'
p12
I11537
sS'duck'
p13
I7899
sS'orange'
p14
I7256
sS'airplane'
p15
I13359
sS'pooh'
p16
I13808
sS'red'
p17
I5586
sS'raptor'
p18
I10819
s.