(dp0
S'blue'
p1
I4731
sS'pink'
p2
I6979
sS'boat'
p3
I10502
sS'cow'
p4
I10115
sS'hippo'
p5
I11940
sS'car'
p6
I9107
sS'elephant'
p7
I8372
sS'frog'
p8
I12524
sS'lion'
p9
I13702
sS'book'
p10
I11352
sS'green'
p11
I5945
sS'yellow'
p12
I7437
sS'duck'
p13
I7943
sS'orange'
p14
I4219
sS'airplane'
p15
I8730
sS'pooh'
p16
I12913
sS'raptor'
p17
I9714
sS'red'
p18
I6566
s.