(dp0
S'blue'
p1
I6982
sS'pink'
p2
I7383
sS'frog'
p3
I12417
sS'cow'
p4
I12061
sS'hippo'
p5
I11632
sS'car'
p6
I14597
sS'duck'
p7
I12860
sS'yellow'
p8
I6238
sS'lion'
p9
I10832
sS'book'
p10
I9021
sS'green'
p11
I8574
sS'boat'
p12
I14133
sS'elephant'
p13
I10378
sS'orange'
p14
I5492
sS'pooh'
p15
I9499
sS'airplane'
p16
I9941
sS'red'
p17
I7838
sS'raptor'
p18
I13311
s.