(dp0
S'pink'
p1
I20213
sS'blue'
p2
I20824
sS'boat'
p3
I31586
sS'cow'
p4
I33279
sS'hippo'
p5
I29632
sS'car'
p6
I34000
sS'elephant'
p7
I32385
sS'yellow'
p8
I19593
sS'lion'
p9
I30730
sS'book'
p10
I28980
sS'green'
p11
I22898
sS'frog'
p12
I26712
sS'duck'
p13
I26062
sS'orange'
p14
I23363
sS'pooh'
p15
I27222
sS'airplane'
p16
I30279
sS'raptor'
p17
I32810
sS'red'
p18
I21560
s.